target datalayout = "e-m:e-p270:32:32-p271:32:32-p272:64:64-i64:64-i128:128-f80:128-n8:16:32:64-S128"
target triple = "x86_64-pc-linux-gnu"

%struct.redisObject = type { i32, i32, ptr }
%struct.hllhdr = type { [4 x i8], i8, [3 x i8], [8 x i8], [0 x i8] }

; Function Attrs: nounwind uwtable
define dso_local i32 @hllDenseSet(ptr noundef %0, i64 noundef %1, i8 noundef zeroext %2) #0 {
  %4 = alloca i32, align 4
  %5 = alloca ptr, align 8
  %6 = alloca i64, align 8
  %7 = alloca i8, align 1
  %8 = alloca i8, align 1
  %9 = alloca ptr, align 8
  %10 = alloca i64, align 8
  %11 = alloca i64, align 8
  %12 = alloca i64, align 8
  %13 = alloca i64, align 8
  %14 = alloca i64, align 8
  %15 = alloca ptr, align 8
  %16 = alloca i64, align 8
  %17 = alloca i64, align 8
  %18 = alloca i64, align 8
  %19 = alloca i64, align 8
  %20 = alloca i32, align 4
  store ptr %0, ptr %5, align 8, !tbaa !13
  store i64 %1, ptr %6, align 8, !tbaa !11
  store i8 %2, ptr %7, align 1, !tbaa !17
  call void @llvm.lifetime.start.p0(i64 1, ptr %8) #15
  br label %21

21:                                               ; preds = %3
  call void @llvm.lifetime.start.p0(i64 8, ptr %9) #15
  %22 = load ptr, ptr %5, align 8, !tbaa !13
  store ptr %22, ptr %9, align 8, !tbaa !13
  call void @llvm.lifetime.start.p0(i64 8, ptr %10) #15
  %23 = load i64, ptr %6, align 8, !tbaa !11
  %24 = mul nsw i64 %23, 6
  %25 = sdiv i64 %24, 8
  store i64 %25, ptr %10, align 8, !tbaa !11
  call void @llvm.lifetime.start.p0(i64 8, ptr %11) #15
  %26 = load i64, ptr %6, align 8, !tbaa !11
  %27 = mul nsw i64 %26, 6
  %28 = and i64 %27, 7
  store i64 %28, ptr %11, align 8, !tbaa !11
  call void @llvm.lifetime.start.p0(i64 8, ptr %12) #15
  %29 = load i64, ptr %11, align 8, !tbaa !11
  %30 = sub i64 8, %29
  store i64 %30, ptr %12, align 8, !tbaa !11
  call void @llvm.lifetime.start.p0(i64 8, ptr %13) #15
  %31 = load ptr, ptr %9, align 8, !tbaa !13
  %32 = load i64, ptr %10, align 8, !tbaa !11
  %33 = getelementptr inbounds nuw i8, ptr %31, i64 %32
  %34 = load i8, ptr %33, align 1, !tbaa !17
  %35 = zext i8 %34 to i64
  store i64 %35, ptr %13, align 8, !tbaa !11
  call void @llvm.lifetime.start.p0(i64 8, ptr %14) #15
  %36 = load ptr, ptr %9, align 8, !tbaa !13
  %37 = load i64, ptr %10, align 8, !tbaa !11
  %38 = add i64 %37, 1
  %39 = getelementptr inbounds nuw i8, ptr %36, i64 %38
  %40 = load i8, ptr %39, align 1, !tbaa !17
  %41 = zext i8 %40 to i64
  store i64 %41, ptr %14, align 8, !tbaa !11
  %42 = load i64, ptr %13, align 8, !tbaa !11
  %43 = load i64, ptr %11, align 8, !tbaa !11
  %44 = lshr i64 %42, %43
  %45 = load i64, ptr %14, align 8, !tbaa !11
  %46 = load i64, ptr %12, align 8, !tbaa !11
  %47 = shl i64 %45, %46
  %48 = or i64 %44, %47
  %49 = and i64 %48, 63
  %50 = trunc i64 %49 to i8
  store i8 %50, ptr %8, align 1, !tbaa !17
  call void @llvm.lifetime.end.p0(i64 8, ptr %14) #15
  call void @llvm.lifetime.end.p0(i64 8, ptr %13) #15
  call void @llvm.lifetime.end.p0(i64 8, ptr %12) #15
  call void @llvm.lifetime.end.p0(i64 8, ptr %11) #15
  call void @llvm.lifetime.end.p0(i64 8, ptr %10) #15
  call void @llvm.lifetime.end.p0(i64 8, ptr %9) #15
  br label %51

51:                                               ; preds = %21
  br label %52

52:                                               ; preds = %51
  %53 = load i8, ptr %7, align 1, !tbaa !17
  %54 = zext i8 %53 to i32
  %55 = load i8, ptr %8, align 1, !tbaa !17
  %56 = zext i8 %55 to i32
  %57 = icmp sgt i32 %54, %56
  br i1 %57, label %58, label %117

58:                                               ; preds = %52
  br label %59

59:                                               ; preds = %58
  call void @llvm.lifetime.start.p0(i64 8, ptr %15) #15
  %60 = load ptr, ptr %5, align 8, !tbaa !13
  store ptr %60, ptr %15, align 8, !tbaa !13
  call void @llvm.lifetime.start.p0(i64 8, ptr %16) #15
  %61 = load i64, ptr %6, align 8, !tbaa !11
  %62 = mul nsw i64 %61, 6
  %63 = sdiv i64 %62, 8
  store i64 %63, ptr %16, align 8, !tbaa !11
  call void @llvm.lifetime.start.p0(i64 8, ptr %17) #15
  %64 = load i64, ptr %6, align 8, !tbaa !11
  %65 = mul nsw i64 %64, 6
  %66 = and i64 %65, 7
  store i64 %66, ptr %17, align 8, !tbaa !11
  call void @llvm.lifetime.start.p0(i64 8, ptr %18) #15
  %67 = load i64, ptr %17, align 8, !tbaa !11
  %68 = sub i64 8, %67
  store i64 %68, ptr %18, align 8, !tbaa !11
  call void @llvm.lifetime.start.p0(i64 8, ptr %19) #15
  %69 = load i8, ptr %7, align 1, !tbaa !17
  %70 = zext i8 %69 to i64
  store i64 %70, ptr %19, align 8, !tbaa !11
  %71 = load i64, ptr %17, align 8, !tbaa !11
  %72 = trunc i64 %71 to i32
  %73 = shl i32 63, %72
  %74 = xor i32 %73, -1
  %75 = load ptr, ptr %15, align 8, !tbaa !13
  %76 = load i64, ptr %16, align 8, !tbaa !11
  %77 = getelementptr inbounds nuw i8, ptr %75, i64 %76
  %78 = load i8, ptr %77, align 1, !tbaa !17
  %79 = zext i8 %78 to i32
  %80 = and i32 %79, %74
  %81 = trunc i32 %80 to i8
  store i8 %81, ptr %77, align 1, !tbaa !17
  %82 = load i64, ptr %19, align 8, !tbaa !11
  %83 = load i64, ptr %17, align 8, !tbaa !11
  %84 = shl i64 %82, %83
  %85 = load ptr, ptr %15, align 8, !tbaa !13
  %86 = load i64, ptr %16, align 8, !tbaa !11
  %87 = getelementptr inbounds nuw i8, ptr %85, i64 %86
  %88 = load i8, ptr %87, align 1, !tbaa !17
  %89 = zext i8 %88 to i64
  %90 = or i64 %89, %84
  %91 = trunc i64 %90 to i8
  store i8 %91, ptr %87, align 1, !tbaa !17
  %92 = load i64, ptr %18, align 8, !tbaa !11
  %93 = trunc i64 %92 to i32
  %94 = ashr i32 63, %93
  %95 = xor i32 %94, -1
  %96 = load ptr, ptr %15, align 8, !tbaa !13
  %97 = load i64, ptr %16, align 8, !tbaa !11
  %98 = add i64 %97, 1
  %99 = getelementptr inbounds nuw i8, ptr %96, i64 %98
  %100 = load i8, ptr %99, align 1, !tbaa !17
  %101 = zext i8 %100 to i32
  %102 = and i32 %101, %95
  %103 = trunc i32 %102 to i8
  store i8 %103, ptr %99, align 1, !tbaa !17
  %104 = load i64, ptr %19, align 8, !tbaa !11
  %105 = load i64, ptr %18, align 8, !tbaa !11
  %106 = lshr i64 %104, %105
  %107 = load ptr, ptr %15, align 8, !tbaa !13
  %108 = load i64, ptr %16, align 8, !tbaa !11
  %109 = add i64 %108, 1
  %110 = getelementptr inbounds nuw i8, ptr %107, i64 %109
  %111 = load i8, ptr %110, align 1, !tbaa !17
  %112 = zext i8 %111 to i64
  %113 = or i64 %112, %106
  %114 = trunc i64 %113 to i8
  store i8 %114, ptr %110, align 1, !tbaa !17
  call void @llvm.lifetime.end.p0(i64 8, ptr %19) #15
  call void @llvm.lifetime.end.p0(i64 8, ptr %18) #15
  call void @llvm.lifetime.end.p0(i64 8, ptr %17) #15
  call void @llvm.lifetime.end.p0(i64 8, ptr %16) #15
  call void @llvm.lifetime.end.p0(i64 8, ptr %15) #15
  br label %115

115:                                              ; preds = %59
  br label %116

116:                                              ; preds = %115
  store i32 1, ptr %4, align 4
  store i32 1, ptr %20, align 4
  br label %118

117:                                              ; preds = %52
  store i32 0, ptr %4, align 4
  store i32 1, ptr %20, align 4
  br label %118

118:                                              ; preds = %117, %116
  call void @llvm.lifetime.end.p0(i64 1, ptr %8) #15
  %119 = load i32, ptr %4, align 4
  ret i32 %119
}

; Function Attrs: nounwind uwtable
define dso_local i32 @hllSparseAdd(ptr noundef %0, ptr noundef %1, i64 noundef %2) #0 {
  %4 = alloca ptr, align 8
  %5 = alloca ptr, align 8
  %6 = alloca i64, align 8
  %7 = alloca i64, align 8
  %8 = alloca i8, align 1
  store ptr %0, ptr %4, align 8, !tbaa !23
  store ptr %1, ptr %5, align 8, !tbaa !13
  store i64 %2, ptr %6, align 8, !tbaa !11
  call void @llvm.lifetime.start.p0(i64 8, ptr %7) #15
  call void @llvm.lifetime.start.p0(i64 1, ptr %8) #15
  %9 = load ptr, ptr %5, align 8, !tbaa !13
  %10 = load i64, ptr %6, align 8, !tbaa !11
  %11 = call i32 @hllPatLen(ptr noundef %9, i64 noundef %10, ptr noundef %7)
  %12 = trunc i32 %11 to i8
  store i8 %12, ptr %8, align 1, !tbaa !17
  %13 = load ptr, ptr %4, align 8, !tbaa !23
  %14 = load i64, ptr %7, align 8, !tbaa !11
  %15 = load i8, ptr %8, align 1, !tbaa !17
  %16 = call i32 @hllSparseSet(ptr noundef %13, i64 noundef %14, i8 noundef zeroext %15)
  call void @llvm.lifetime.end.p0(i64 1, ptr %8) #15
  call void @llvm.lifetime.end.p0(i64 8, ptr %7) #15
  ret i32 %16
}

; Function Attrs: nounwind uwtable
define dso_local i32 @hllDenseAdd(ptr noundef %0, ptr noundef %1, i64 noundef %2) #0 {
  %4 = alloca ptr, align 8
  %5 = alloca ptr, align 8
  %6 = alloca i64, align 8
  %7 = alloca i64, align 8
  %8 = alloca i8, align 1
  store ptr %0, ptr %4, align 8, !tbaa !13
  store ptr %1, ptr %5, align 8, !tbaa !13
  store i64 %2, ptr %6, align 8, !tbaa !11
  call void @llvm.lifetime.start.p0(i64 8, ptr %7) #15
  call void @llvm.lifetime.start.p0(i64 1, ptr %8) #15
  %9 = load ptr, ptr %5, align 8, !tbaa !13
  %10 = load i64, ptr %6, align 8, !tbaa !11
  %11 = call i32 @hllPatLen(ptr noundef %9, i64 noundef %10, ptr noundef %7)
  %12 = trunc i32 %11 to i8
  store i8 %12, ptr %8, align 1, !tbaa !17
  %13 = load ptr, ptr %4, align 8, !tbaa !13
  %14 = load i64, ptr %7, align 8, !tbaa !11
  %15 = load i8, ptr %8, align 1, !tbaa !17
  %16 = call i32 @hllDenseSet(ptr noundef %13, i64 noundef %14, i8 noundef zeroext %15)
  call void @llvm.lifetime.end.p0(i64 1, ptr %8) #15
  call void @llvm.lifetime.end.p0(i64 8, ptr %7) #15
  ret i32 %16
}

; Function Attrs: nounwind uwtable
define dso_local i32 @hllAdd(ptr noundef %0, ptr noundef %1, i64 noundef %2) #0 {
  %4 = alloca i32, align 4
  %5 = alloca ptr, align 8
  %6 = alloca ptr, align 8
  %7 = alloca i64, align 8
  %8 = alloca ptr, align 8
  %9 = alloca i32, align 4
  store ptr %0, ptr %5, align 8, !tbaa !23
  store ptr %1, ptr %6, align 8, !tbaa !13
  store i64 %2, ptr %7, align 8, !tbaa !11
  call void @llvm.lifetime.start.p0(i64 8, ptr %8) #15
  %10 = load ptr, ptr %5, align 8, !tbaa !23
  %11 = getelementptr inbounds nuw %struct.redisObject, ptr %10, i32 0, i32 2
  %12 = load ptr, ptr %11, align 8, !tbaa !25
  store ptr %12, ptr %8, align 8, !tbaa !27
  %13 = load ptr, ptr %8, align 8, !tbaa !27
  %14 = getelementptr inbounds nuw %struct.hllhdr, ptr %13, i32 0, i32 1
  %15 = load i8, ptr %14, align 1, !tbaa !17
  %16 = zext i8 %15 to i32
  switch i32 %16, label %29 [
    i32 0, label %17
    i32 1, label %24
  ]

17:                                               ; preds = %3
  %18 = load ptr, ptr %8, align 8, !tbaa !27
  %19 = getelementptr inbounds nuw %struct.hllhdr, ptr %18, i32 0, i32 4
  %20 = getelementptr inbounds [0 x i8], ptr %19, i64 0, i64 0
  %21 = load ptr, ptr %6, align 8, !tbaa !13
  %22 = load i64, ptr %7, align 8, !tbaa !11
  %23 = call i32 @hllDenseAdd(ptr noundef %20, ptr noundef %21, i64 noundef %22)
  store i32 %23, ptr %4, align 4
  store i32 1, ptr %9, align 4
  br label %30

24:                                               ; preds = %3
  %25 = load ptr, ptr %5, align 8, !tbaa !23
  %26 = load ptr, ptr %6, align 8, !tbaa !13
  %27 = load i64, ptr %7, align 8, !tbaa !11
  %28 = call i32 @hllSparseAdd(ptr noundef %25, ptr noundef %26, i64 noundef %27)
  store i32 %28, ptr %4, align 4
  store i32 1, ptr %9, align 4
  br label %30

29:                                               ; preds = %3
  store i32 -1, ptr %4, align 4
  store i32 1, ptr %9, align 4
  br label %30

30:                                               ; preds = %29, %24, %17
  call void @llvm.lifetime.end.p0(i64 8, ptr %8) #15
  %31 = load i32, ptr %4, align 4
  ret i32 %31
}