; Function Attrs: nounwind uwtable
define dso_local range(i32 -1, 2) i32 @hllAdd(ptr noundef captures(none) %0, ptr noundef captures(address) %1, i64 noundef %2) local_unnamed_addr #5 {
  %4 = alloca i64, align 8
  %5 = alloca i64, align 8
  %6 = getelementptr inbounds nuw i8, ptr %0, i64 8
  %7 = load ptr, ptr %6, align 8, !tbaa !15
  %8 = getelementptr inbounds nuw i8, ptr %7, i64 4
  %9 = load i8, ptr %8, align 1, !tbaa !11
  switch i8 %9, label %51 [
    i8 0, label %10
    i8 1, label %46
  ]

10:                                               ; preds = %3
  %11 = getelementptr inbounds nuw i8, ptr %7, i64 16
  call void @llvm.lifetime.start.p0(i64 8, ptr nonnull %5) #20
  %12 = call i32 @hllPatLen(ptr noundef %1, i64 noundef %2, ptr noundef nonnull %5)
  %13 = load i64, ptr %5, align 8, !tbaa !5
  %14 = mul nsw i64 %13, 6
  %15 = sdiv i64 %14, 8
  %16 = and i64 %14, 6
  %17 = sub nuw nsw i64 8, %16
  %18 = getelementptr inbounds nuw i8, ptr %11, i64 %15
  %19 = load i8, ptr %18, align 1, !tbaa !11
  %20 = zext i8 %19 to i64
  %21 = getelementptr i8, ptr %18, i64 1
  %22 = load i8, ptr %21, align 1, !tbaa !11
  %23 = zext i8 %22 to i64
  %24 = lshr i64 %20, %16
  %25 = shl nuw nsw i64 %23, %17
  %26 = or i64 %25, %24
  %27 = trunc nuw nsw i64 %26 to i32
  %28 = and i32 %27, 63
  %29 = icmp samesign ult i32 %28, %12
  br i1 %29, label %30, label %hllDenseAdd.exit

30:                                               ; preds = %10
  %31 = zext nneg i32 %12 to i64
  %32 = trunc nuw nsw i64 %16 to i8
  %33 = shl i8 63, %32
  %34 = xor i8 %33, -1
  %35 = and i8 %19, %34
  %36 = shl nuw nsw i64 %31, %16
  %37 = trunc i64 %36 to i8
  %38 = or i8 %35, %37
  store i8 %38, ptr %18, align 1, !tbaa !11
  %39 = trunc nuw nsw i64 %17 to i16
  %40 = ashr i16 -64, %39
  %41 = trunc nsw i16 %40 to i8
  %42 = and i8 %22, %41
  %43 = lshr i64 %31, %17
  %44 = trunc nuw nsw i64 %43 to i8
  %45 = or i8 %42, %44
  store i8 %45, ptr %21, align 1, !tbaa !11
  br label %hllDenseAdd.exit

hllDenseAdd.exit:                                 ; preds = %10, %30
  %.0.i.i = phi i32 [ 1, %30 ], [ 0, %10 ]
  call void @llvm.lifetime.end.p0(i64 8, ptr nonnull %5) #20
  br label %51

46:                                               ; preds = %3
  call void @llvm.lifetime.start.p0(i64 8, ptr nonnull %4) #20
  %47 = call i32 @hllPatLen(ptr noundef %1, i64 noundef %2, ptr noundef nonnull %4)
  %48 = trunc nuw nsw i32 %47 to i8
  %49 = load i64, ptr %4, align 8, !tbaa !5
  %50 = tail call range(i32 -1, 2) i32 @hllSparseSet(ptr noundef nonnull %0, i64 noundef %49, i8 noundef zeroext %48)
  call void @llvm.lifetime.end.p0(i64 8, ptr nonnull %4) #20
  br label %51

51:                                               ; preds = %3, %46, %hllDenseAdd.exit
  %.0 = phi i32 [ %50, %46 ], [ %.0.i.i, %hllDenseAdd.exit ], [ -1, %3 ]
  ret i32 %.0
}